; Function Attrs: mustprogress uwtable
define internal void @"_ZNSt17_Function_handlerIFvPKcEZ4mainE4$_23E9_M_invokeERKSt9_Any_dataOS1_"(ptr nocapture noundef nonnull readonly align 8 dereferenceable(16) %0, ptr nocapture noundef nonnull readonly align 8 dereferenceable(8) %1) #14 align 2 personality ptr @__gxx_personality_v0 {
  %3 = alloca %"class.std::function.334", align 8
  %.val = load ptr, ptr %0, align 8
  %.val2 = load ptr, ptr %1, align 8
  call void @llvm.lifetime.start.p0(i64 32, ptr nonnull %3)
  call void @_Z14find_extensionPKc(ptr dead_on_unwind nonnull writable sret(%"class.std::function.334") align 8 %3, ptr noundef %.val2)
  %4 = getelementptr inbounds i8, ptr %.val, i64 8
  %5 = load ptr, ptr %4, align 8
  %6 = getelementptr inbounds i8, ptr %.val, i64 16
  %7 = load ptr, ptr %6, align 8
  %.not.i.i.i.i.i = icmp eq ptr %5, %7
  br i1 %.not.i.i.i.i.i, label %19, label %8

8:                                                ; preds = %2
  %9 = getelementptr inbounds i8, ptr %5, i64 24
  %10 = getelementptr inbounds i8, ptr %3, i64 24
  call void @llvm.memset.p0.i64(ptr noundef nonnull align 8 dereferenceable(24) %5, i8 0, i64 24, i1 false)
  %11 = load ptr, ptr %10, align 8
  store ptr %11, ptr %9, align 8
  %12 = getelementptr inbounds i8, ptr %3, i64 16
  %13 = load ptr, ptr %12, align 8
  %.not.i.i.not.i.i.i.i.i.i.i.i = icmp eq ptr %13, null
  br i1 %.not.i.i.not.i.i.i.i.i.i.i.i, label %_ZNSt6vectorISt8functionIFP11extension_tvEESaIS4_EE9push_backEOS4_.exit.thread.i.i.i, label %14

14:                                               ; preds = %8
  %15 = getelementptr inbounds i8, ptr %5, i64 16
  call void @llvm.memcpy.p0.p0.i64(ptr noundef nonnull align 8 dereferenceable(16) %5, ptr noundef nonnull align 8 dereferenceable(16) %3, i64 16, i1 false)
  %16 = load ptr, ptr %12, align 8
  store ptr %16, ptr %15, align 8
  br label %_ZNSt6vectorISt8functionIFP11extension_tvEESaIS4_EE9push_backEOS4_.exit.thread.i.i.i

_ZNSt6vectorISt8functionIFP11extension_tvEESaIS4_EE9push_backEOS4_.exit.thread.i.i.i: ; preds = %14, %8
  %17 = load ptr, ptr %4, align 8
  %18 = getelementptr inbounds i8, ptr %17, i64 32
  store ptr %18, ptr %4, align 8
  br label %"_ZSt10__invoke_rIvRZ4mainE4$_23JPKcEENSt9enable_ifIX16is_invocable_r_vIT_T0_DpT1_EES5_E4typeEOS6_DpOS7_.exit"

19:                                               ; preds = %2
  invoke void @_ZNSt6vectorISt8functionIFP11extension_tvEESaIS4_EE17_M_realloc_insertIJS4_EEEvN9__gnu_cxx17__normal_iteratorIPS4_S6_EEDpOT_(ptr noundef nonnull align 8 dereferenceable(24) %.val, ptr %5, ptr noundef nonnull align 8 dereferenceable(32) %3)
          to label %_ZNSt6vectorISt8functionIFP11extension_tvEESaIS4_EE9push_backEOS4_.exit.i.i.i unwind label %25

_ZNSt6vectorISt8functionIFP11extension_tvEESaIS4_EE9push_backEOS4_.exit.i.i.i: ; preds = %19
  %.phi.trans.insert.i.i.i = getelementptr inbounds i8, ptr %3, i64 16
  %.pre.i.i.i = load ptr, ptr %.phi.trans.insert.i.i.i, align 8
  %.not.i.i3.i.i.i = icmp eq ptr %.pre.i.i.i, null
  br i1 %.not.i.i3.i.i.i, label %"_ZSt10__invoke_rIvRZ4mainE4$_23JPKcEENSt9enable_ifIX16is_invocable_r_vIT_T0_DpT1_EES5_E4typeEOS6_DpOS7_.exit", label %20

20:                                               ; preds = %_ZNSt6vectorISt8functionIFP11extension_tvEESaIS4_EE9push_backEOS4_.exit.i.i.i
  %21 = invoke noundef zeroext i1 %.pre.i.i.i(ptr noundef nonnull align 8 dereferenceable(16) %3, ptr noundef nonnull align 8 dereferenceable(16) %3, i32 noundef 3)
          to label %"_ZSt10__invoke_rIvRZ4mainE4$_23JPKcEENSt9enable_ifIX16is_invocable_r_vIT_T0_DpT1_EES5_E4typeEOS6_DpOS7_.exit" unwind label %22

22:                                               ; preds = %20
  %23 = landingpad { ptr, i32 }
          catch ptr null
  %24 = extractvalue { ptr, i32 } %23, 0
  call void @__clang_call_terminate(ptr %24) #30
  unreachable

25:                                               ; preds = %19
  %26 = landingpad { ptr, i32 }
          cleanup
  %27 = getelementptr inbounds i8, ptr %3, i64 16
  %28 = load ptr, ptr %27, align 8
  %.not.i.i4.i.i.i = icmp eq ptr %28, null
  br i1 %.not.i.i4.i.i.i, label %_ZNSt8functionIFP11extension_tvEED2Ev.exit5.i.i.i, label %29

29:                                               ; preds = %25
  %30 = invoke noundef zeroext i1 %28(ptr noundef nonnull align 8 dereferenceable(16) %3, ptr noundef nonnull align 8 dereferenceable(16) %3, i32 noundef 3)
          to label %_ZNSt8functionIFP11extension_tvEED2Ev.exit5.i.i.i unwind label %31

31:                                               ; preds = %29
  %32 = landingpad { ptr, i32 }
          catch ptr null
  %33 = extractvalue { ptr, i32 } %32, 0
  call void @__clang_call_terminate(ptr %33) #30
  unreachable

_ZNSt8functionIFP11extension_tvEED2Ev.exit5.i.i.i: ; preds = %29, %25
  resume { ptr, i32 } %26

"_ZSt10__invoke_rIvRZ4mainE4$_23JPKcEENSt9enable_ifIX16is_invocable_r_vIT_T0_DpT1_EES5_E4typeEOS6_DpOS7_.exit": ; preds = %_ZNSt6vectorISt8functionIFP11extension_tvEESaIS4_EE9push_backEOS4_.exit.thread.i.i.i, %_ZNSt6vectorISt8functionIFP11extension_tvEESaIS4_EE9push_backEOS4_.exit.i.i.i, %20
  call void @llvm.lifetime.end.p0(i64 32, ptr nonnull %3)
  ret void
}